target datalayout = "e-m:e-p270:32:32-p271:32:32-p272:64:64-i64:64-i128:128-f80:128-n8:16:32:64-S128"
target triple = "x86_64-pc-linux-gnu"

%struct.timespec = type { i64, i64 }

; Function Attrs: nounwind uwtable
define i32 @PaPthreadUtil_NegotiateCondAttrClock(ptr noundef %0) #0 {
  %2 = alloca i32, align 4
  %3 = alloca ptr, align 8
  %4 = alloca i32, align 4
  %5 = alloca i32, align 4
  store ptr %0, ptr %3, align 8, !tbaa !3
  call void @llvm.lifetime.start.p0(i64 4, ptr %4) #3
  %6 = load ptr, ptr %3, align 8, !tbaa !3
  %7 = call i32 @pthread_condattr_setclock(ptr noundef %6, i32 noundef 7) #3
  %8 = icmp eq i32 %7, 0
  br i1 %8, label %9, label %10

9:                                                ; preds = %1
  store i32 7, ptr %2, align 4
  store i32 1, ptr %5, align 4
  br label %27

10:                                               ; preds = %1
  %11 = load ptr, ptr %3, align 8, !tbaa !3
  %12 = call i32 @pthread_condattr_setclock(ptr noundef %11, i32 noundef 1) #3
  %13 = icmp eq i32 %12, 0
  br i1 %13, label %14, label %15

14:                                               ; preds = %10
  store i32 1, ptr %2, align 4
  store i32 1, ptr %5, align 4
  br label %27

15:                                               ; preds = %10
  %16 = load ptr, ptr %3, align 8, !tbaa !3
  %17 = call i32 @pthread_condattr_setclock(ptr noundef %16, i32 noundef 0) #3
  %18 = icmp eq i32 %17, 0
  br i1 %18, label %19, label %20

19:                                               ; preds = %15
  store i32 0, ptr %2, align 4
  store i32 1, ptr %5, align 4
  br label %27

20:                                               ; preds = %15
  %21 = load ptr, ptr %3, align 8, !tbaa !3
  %22 = call i32 @pthread_condattr_getclock(ptr noundef %21, ptr noundef %4) #3
  %23 = icmp eq i32 %22, 0
  br i1 %23, label %24, label %26

24:                                               ; preds = %20
  %25 = load i32, ptr %4, align 4, !tbaa !7
  store i32 %25, ptr %2, align 4
  store i32 1, ptr %5, align 4
  br label %27

26:                                               ; preds = %20
  store i32 0, ptr %2, align 4
  store i32 1, ptr %5, align 4
  br label %27

27:                                               ; preds = %26, %24, %19, %14, %9
  call void @llvm.lifetime.end.p0(i64 4, ptr %4) #3
  %28 = load i32, ptr %2, align 4
  ret i32 %28
}

; Function Attrs: nocallback nofree nosync nounwind willreturn memory(argmem: readwrite)
declare void @llvm.lifetime.start.p0(i64 immarg, ptr captures(none)) #1

; Function Attrs: nounwind
declare i32 @pthread_condattr_setclock(ptr noundef, i32 noundef) #2

; Function Attrs: nounwind
declare i32 @pthread_condattr_getclock(ptr noundef, ptr noundef) #2

; Function Attrs: nocallback nofree nosync nounwind willreturn memory(argmem: readwrite)
declare void @llvm.lifetime.end.p0(i64 immarg, ptr captures(none)) #1

; Function Attrs: nounwind uwtable
define i32 @PaPthreadUtil_GetTime(i32 noundef %0, ptr noundef %1) #0 {
  %3 = alloca i32, align 4
  %4 = alloca i32, align 4
  %5 = alloca ptr, align 8
  store i32 %0, ptr %4, align 4, !tbaa !7
  store ptr %1, ptr %5, align 8, !tbaa !9
  %6 = load i32, ptr %4, align 4, !tbaa !7
  %7 = load ptr, ptr %5, align 8, !tbaa !9
  %8 = call i32 @clock_gettime(i32 noundef %6, ptr noundef %7) #3
  %9 = icmp eq i32 %8, 0
  br i1 %9, label %10, label %11

10:                                               ; preds = %2
  store i32 0, ptr %3, align 4
  br label %16

11:                                               ; preds = %2
  %12 = load ptr, ptr %5, align 8, !tbaa !9
  %13 = getelementptr inbounds nuw %struct.timespec, ptr %12, i32 0, i32 0
  store i64 0, ptr %13, align 8, !tbaa !11
  %14 = load ptr, ptr %5, align 8, !tbaa !9
  %15 = getelementptr inbounds nuw %struct.timespec, ptr %14, i32 0, i32 1
  store i64 0, ptr %15, align 8, !tbaa !14
  store i32 -1, ptr %3, align 4
  br label %16

16:                                               ; preds = %11, %10
  %17 = load i32, ptr %3, align 4
  ret i32 %17
}

; Function Attrs: nounwind
declare i32 @clock_gettime(i32 noundef, ptr noundef) #2


!llvm.module.flags = !{!0, !1, !2}

!0 = !{i32 1, !"wchar_size", i32 4}
!1 = !{i32 8, !"PIC Level", i32 2}
!2 = !{i32 7, !"uwtable", i32 2}
!3 = !{!4, !4, i64 0}
!4 = !{!"any pointer", !5, i64 0}
!5 = !{!"omnipotent char", !6, i64 0}
!6 = !{!"Simple C/C++ TBAA"}
!7 = !{!8, !8, i64 0}
!8 = !{!"int", !5, i64 0}
!9 = !{!10, !10, i64 0}
!10 = !{!"p1 _ZTS8timespec", !4, i64 0}
!11 = !{!12, !13, i64 0}
!12 = !{!"timespec", !13, i64 0, !13, i64 8}
!13 = !{!"long", !5, i64 0}
!14 = !{!12, !13, i64 8}
