; ModuleID = 'bench/portaudio/original/pa_pthread_util.ll'
source_filename = "bench/portaudio/original/pa_pthread_util.ll"
target datalayout = "e-m:e-p270:32:32-p271:32:32-p272:64:64-i64:64-i128:128-f80:128-n8:16:32:64-S128"
target triple = "x86_64-pc-linux-gnu"

; Function Attrs: nounwind uwtable
define i32 @PaPthreadUtil_NegotiateCondAttrClock(ptr noundef %0) local_unnamed_addr #0 {
  %2 = alloca i32, align 4
  call void @llvm.lifetime.start.p0(i64 4, ptr nonnull %2) #4
  %3 = tail call i32 @pthread_condattr_setclock(ptr noundef %0, i32 noundef 7) #4
  %4 = icmp eq i32 %3, 0
  br i1 %4, label %15, label %5

5:                                                ; preds = %1
  %6 = tail call i32 @pthread_condattr_setclock(ptr noundef %0, i32 noundef 1) #4
  %7 = icmp eq i32 %6, 0
  br i1 %7, label %15, label %8

8:                                                ; preds = %5
  %9 = tail call i32 @pthread_condattr_setclock(ptr noundef %0, i32 noundef 0) #4
  %10 = icmp eq i32 %9, 0
  br i1 %10, label %15, label %11

11:                                               ; preds = %8
  %12 = call i32 @pthread_condattr_getclock(ptr noundef %0, ptr noundef nonnull %2) #4
  %13 = icmp eq i32 %12, 0
  %14 = load i32, ptr %2, align 4
  %spec.select = select i1 %13, i32 %14, i32 0
  br label %15

15:                                               ; preds = %11, %8, %5, %1
  %.0 = phi i32 [ 7, %1 ], [ 1, %5 ], [ 0, %8 ], [ %spec.select, %11 ]
  call void @llvm.lifetime.end.p0(i64 4, ptr nonnull %2) #4
  ret i32 %.0
}

; Function Attrs: mustprogress nocallback nofree nosync nounwind willreturn memory(argmem: readwrite)
declare void @llvm.lifetime.start.p0(i64 immarg, ptr captures(none)) #1

; Function Attrs: nounwind
declare i32 @pthread_condattr_setclock(ptr noundef, i32 noundef) local_unnamed_addr #2

; Function Attrs: nounwind
declare i32 @pthread_condattr_getclock(ptr noundef, ptr noundef) local_unnamed_addr #2

; Function Attrs: mustprogress nocallback nofree nosync nounwind willreturn memory(argmem: readwrite)
declare void @llvm.lifetime.end.p0(i64 immarg, ptr captures(none)) #1

; Function Attrs: nounwind uwtable
define range(i32 -1, 1) i32 @PaPthreadUtil_GetTime(i32 noundef %0, ptr noundef %1) local_unnamed_addr #0 {
  %3 = tail call i32 @clock_gettime(i32 noundef %0, ptr noundef %1) #4
  %4 = icmp eq i32 %3, 0
  br i1 %4, label %6, label %5

5:                                                ; preds = %2
  tail call void @llvm.memset.p0.i64(ptr noundef nonnull align 8 dereferenceable(16) %1, i8 0, i64 16, i1 false)
  br label %6

6:                                                ; preds = %2, %5
  %.0 = phi i32 [ -1, %5 ], [ 0, %2 ]
  ret i32 %.0
}

; Function Attrs: nounwind
declare i32 @clock_gettime(i32 noundef, ptr noundef) local_unnamed_addr #2

; Function Attrs: nocallback nofree nounwind willreturn memory(argmem: write)
declare void @llvm.memset.p0.i64(ptr writeonly captures(none), i8, i64, i1 immarg) #3


!llvm.module.flags = !{!0, !1, !2}

!0 = !{i32 1, !"wchar_size", i32 4}
!1 = !{i32 8, !"PIC Level", i32 2}
!2 = !{i32 7, !"uwtable", i32 2}
